target datalayout = "e-m:e-p270:32:32-p271:32:32-p272:64:64-i64:64-i128:128-f80:128-n8:16:32:64-S128"
target triple = "x86_64-pc-linux-gnu"

%struct.slurm_conf_t = type { i64, ptr, i16, ptr, ptr, ptr, ptr, ptr, i16, ptr, ptr, ptr, ptr, ptr, ptr, ptr, i16, ptr, ptr, ptr, ptr, i16, ptr, ptr, ptr, i64, ptr, ptr, ptr, ptr, i16, ptr, ptr, i16, i32, ptr, i32, ptr, i32, i32, ptr, ptr, i64, i64, ptr, i16, i16, ptr, i32, i32, ptr, i32, ptr, i32, i16, i16, i16, ptr, i16, i16, ptr, ptr, i32, i16, i16, ptr, i32, i16, ptr, ptr, ptr, ptr, i16, ptr, ptr, ptr, ptr, i32, ptr, ptr, ptr, ptr, i16, i16, ptr, i32, i32, i32, i16, i16, ptr, ptr, i16, ptr, ptr, i32, i32, i32, i32, i32, i64, i32, i32, i16, ptr, ptr, i32, ptr, ptr, ptr, i16, i32, ptr, ptr, i16, ptr, ptr, i32, i16, ptr, ptr, ptr, ptr, i32, i32, i16, i16, i32, ptr, i16, ptr, i32, i32, i32, i32, i32, i32, ptr, i16, ptr, ptr, i32, i16, ptr, i32, i16, i16, ptr, ptr, ptr, i16, ptr, ptr, ptr, ptr, i16, i16, ptr, i16, ptr, i16, ptr, i16, ptr, i16, ptr, ptr, ptr, ptr, i16, ptr, ptr, ptr, i32, ptr, i32, ptr, ptr, i16, ptr, ptr, i32, i16, ptr, ptr, i16, i16, ptr, i16, ptr, ptr, ptr, i32, ptr, i16, i16, ptr, ptr, ptr, ptr, ptr, ptr, ptr, ptr, i16, i32, i16, ptr, ptr, ptr, ptr, i32, ptr, ptr, ptr, i16, ptr, ptr, ptr, i16, ptr, i16, ptr, i16, i16, ptr }
%struct.stat = type { i64, i64, i64, i32, i32, i32, i32, i64, i64, i64, i64, %struct.timespec, %struct.timespec, %struct.timespec, [3 x i64] }
%struct.timespec = type { i64, i64 }

@slurm_conf = external global %struct.slurm_conf_t, align 8
@.str.80 = private unnamed_addr constant [14 x i8] c"mkdir(%s): %m\00", align 1
@.str.81 = private unnamed_addr constant [38 x i8] c"Unable to stat state save loc: %s: %m\00", align 1
@.str.82 = private unnamed_addr constant [37 x i8] c"State save loc: %s: Not a directory!\00", align 1
@.str.83 = private unnamed_addr constant [44 x i8] c"Incorrect permissions on state save loc: %s\00", align 1

; Function Attrs: nounwind uwtable
define dso_local void @set_slurmctld_state_loc() #0 {
  %1 = alloca i32, align 4
  %2 = alloca %struct.stat, align 8
  %3 = alloca ptr, align 8
  call void @llvm.lifetime.start.p0(i64 4, ptr %1) #11
  call void @llvm.lifetime.start.p0(i64 144, ptr %2) #11
  call void @llvm.lifetime.start.p0(i64 8, ptr %3) #11
  %4 = load ptr, ptr getelementptr inbounds nuw (%struct.slurm_conf_t, ptr @slurm_conf, i32 0, i32 199), align 8
  store ptr %4, ptr %3, align 8
  %5 = load ptr, ptr %3, align 8
  %6 = call i32 @stat(ptr noundef %5, ptr noundef %2) #11
  store i32 %6, ptr %1, align 4
  %7 = icmp slt i32 %6, 0
  br i1 %7, label %8, label %19

8:                                                ; preds = %0
  %9 = call ptr @__errno_location() #14
  %10 = load i32, ptr %9, align 4
  %11 = icmp eq i32 %10, 2
  br i1 %11, label %12, label %19

12:                                               ; preds = %8
  %13 = load ptr, ptr %3, align 8
  %14 = call i32 @mkdir(ptr noundef %13, i32 noundef 493) #11
  %15 = icmp slt i32 %14, 0
  br i1 %15, label %16, label %18

16:                                               ; preds = %12
  %17 = load ptr, ptr %3, align 8
  call void (ptr, ...) @fatal(ptr noundef @.str.80, ptr noundef %17) #12
  unreachable

18:                                               ; preds = %12
  br label %40

19:                                               ; preds = %8, %0
  %20 = load i32, ptr %1, align 4
  %21 = icmp slt i32 %20, 0
  br i1 %21, label %22, label %24

22:                                               ; preds = %19
  %23 = load ptr, ptr %3, align 8
  call void (ptr, ...) @fatal(ptr noundef @.str.81, ptr noundef %23) #12
  unreachable

24:                                               ; preds = %19
  %25 = getelementptr inbounds nuw %struct.stat, ptr %2, i32 0, i32 3
  %26 = load i32, ptr %25, align 8
  %27 = and i32 %26, 61440
  %28 = icmp eq i32 %27, 16384
  br i1 %28, label %31, label %29

29:                                               ; preds = %24
  %30 = load ptr, ptr %3, align 8
  call void (ptr, ...) @fatal(ptr noundef @.str.82, ptr noundef %30) #12
  unreachable

31:                                               ; preds = %24
  %32 = load ptr, ptr %3, align 8
  %33 = call i32 @access(ptr noundef %32, i32 noundef 7) #11
  %34 = icmp slt i32 %33, 0
  br i1 %34, label %35, label %37

35:                                               ; preds = %31
  %36 = load ptr, ptr %3, align 8
  call void (ptr, ...) @fatal(ptr noundef @.str.83, ptr noundef %36) #12
  unreachable

37:                                               ; preds = %31
  br label %38

38:                                               ; preds = %37
  br label %39

39:                                               ; preds = %38
  br label %40

40:                                               ; preds = %39, %18
  call void @llvm.lifetime.end.p0(i64 8, ptr %3) #11
  call void @llvm.lifetime.end.p0(i64 144, ptr %2) #11
  call void @llvm.lifetime.end.p0(i64 4, ptr %1) #11
  ret void
}