; Function Attrs: nounwind uwtable
define dso_local void @set_slurmctld_state_loc() local_unnamed_addr #6 {
  %1 = alloca %struct.stat, align 8
  call void @llvm.lifetime.start.p0(i64 144, ptr nonnull %1) #19
  %2 = load ptr, ptr getelementptr inbounds nuw (i8, ptr @slurm_conf, i64 1336), align 8
  %3 = call i32 @stat(ptr noundef %2, ptr noundef nonnull %1) #19
  %4 = icmp slt i32 %3, 0
  br i1 %4, label %5, label %.critedge

5:                                                ; preds = %0
  %6 = tail call ptr @__errno_location() #21
  %7 = load i32, ptr %6, align 4
  %8 = icmp eq i32 %7, 2
  br i1 %8, label %9, label %13

9:                                                ; preds = %5
  %10 = tail call i32 @mkdir(ptr noundef %2, i32 noundef 493) #19
  %11 = icmp slt i32 %10, 0
  br i1 %11, label %12, label %23

12:                                               ; preds = %9
  tail call void (ptr, ...) @fatal(ptr noundef nonnull @.str.80, ptr noundef %2) #20
  unreachable

13:                                               ; preds = %5
  tail call void (ptr, ...) @fatal(ptr noundef nonnull @.str.81, ptr noundef %2) #20
  unreachable

.critedge:                                        ; preds = %0
  %14 = getelementptr inbounds nuw i8, ptr %1, i64 24
  %15 = load i32, ptr %14, align 8
  %16 = and i32 %15, 61440
  %17 = icmp eq i32 %16, 16384
  br i1 %17, label %19, label %18

18:                                               ; preds = %.critedge
  tail call void (ptr, ...) @fatal(ptr noundef nonnull @.str.82, ptr noundef %2) #20
  unreachable

19:                                               ; preds = %.critedge
  %20 = tail call i32 @access(ptr noundef %2, i32 noundef 7) #19
  %21 = icmp slt i32 %20, 0
  br i1 %21, label %22, label %23

22:                                               ; preds = %19
  tail call void (ptr, ...) @fatal(ptr noundef nonnull @.str.83, ptr noundef %2) #20
  unreachable

23:                                               ; preds = %19, %9
  call void @llvm.lifetime.end.p0(i64 144, ptr nonnull %1) #19
  ret void
}